; Function Attrs: mustprogress uwtable
define void @_ZN13FileSetDialog12beginAddFileEv(ptr noundef nonnull align 8 dereferenceable(92) %0) local_unnamed_addr #0 align 2 personality ptr @__gxx_personality_v0 {
  %2 = alloca %class.QString, align 8
  %3 = alloca %class.QString, align 8
  %4 = alloca %class.QString, align 8
  %5 = getelementptr inbounds i8, ptr %0, i64 88
  store i32 -1, ptr %5, align 8
  %6 = load ptr, ptr @mainApp, align 8
  call void @_ZNK11QMetaObject2trEPKcS1_i(ptr dead_on_unwind nonnull writable sret(%class.QString) align 8 %3, ptr noundef nonnull align 8 dereferenceable(56) @_ZN13FileSetDialog16staticMetaObjectE, ptr noundef nonnull @.str, ptr noundef null, i32 noundef -1)
  invoke void @_ZN15MainApplication17windowTitleStringE7QString(ptr dead_on_unwind nonnull writable sret(%class.QString) align 8 %2, ptr noundef nonnull align 8 dereferenceable(216) %6, ptr noundef nonnull %3)
          to label %7 unwind label %29

7:                                                ; preds = %1
  invoke void @_ZN7QWidget14setWindowTitleERK7QString(ptr noundef nonnull align 8 dereferenceable(40) %0, ptr noundef nonnull align 8 dereferenceable(24) %2)
          to label %8 unwind label %31

8:                                                ; preds = %7
  %9 = load ptr, ptr %2, align 8
  %.not.i.i.i = icmp eq ptr %9, null
  br i1 %.not.i.i.i, label %_ZN7QStringD2Ev.exit, label %_ZN17QArrayDataPointerIDsE5derefEv.exit.i.i

_ZN17QArrayDataPointerIDsE5derefEv.exit.i.i:      ; preds = %8
  %10 = atomicrmw sub ptr %9, i32 1 seq_cst, align 4
  %.not.i.i = icmp eq i32 %10, 1
  br i1 %.not.i.i, label %11, label %_ZN7QStringD2Ev.exit

11:                                               ; preds = %_ZN17QArrayDataPointerIDsE5derefEv.exit.i.i
  %12 = load ptr, ptr %2, align 8
  call void @_ZN10QArrayData10deallocateEPS_xx(ptr noundef %12, i64 noundef 2, i64 noundef 8) #15
  br label %_ZN7QStringD2Ev.exit

_ZN7QStringD2Ev.exit:                             ; preds = %8, %_ZN17QArrayDataPointerIDsE5derefEv.exit.i.i, %11
  %13 = load ptr, ptr %3, align 8
  %.not.i.i.i7 = icmp eq ptr %13, null
  br i1 %.not.i.i.i7, label %_ZN7QStringD2Ev.exit10, label %_ZN17QArrayDataPointerIDsE5derefEv.exit.i.i8

_ZN17QArrayDataPointerIDsE5derefEv.exit.i.i8:     ; preds = %_ZN7QStringD2Ev.exit
  %14 = atomicrmw sub ptr %13, i32 1 seq_cst, align 4
  %.not.i.i9 = icmp eq i32 %14, 1
  br i1 %.not.i.i9, label %15, label %_ZN7QStringD2Ev.exit10

15:                                               ; preds = %_ZN17QArrayDataPointerIDsE5derefEv.exit.i.i8
  %16 = load ptr, ptr %3, align 8
  call void @_ZN10QArrayData10deallocateEPS_xx(ptr noundef %16, i64 noundef 2, i64 noundef 8) #15
  br label %_ZN7QStringD2Ev.exit10

_ZN7QStringD2Ev.exit10:                           ; preds = %_ZN7QStringD2Ev.exit, %_ZN17QArrayDataPointerIDsE5derefEv.exit.i.i8, %15
  %17 = getelementptr inbounds i8, ptr %0, i64 64
  %18 = load ptr, ptr %17, align 8
  %19 = getelementptr inbounds i8, ptr %18, i64 32
  %20 = load ptr, ptr %19, align 8
  call void @_ZNK11QMetaObject2trEPKcS1_i(ptr dead_on_unwind nonnull writable sret(%class.QString) align 8 %4, ptr noundef nonnull align 8 dereferenceable(56) @_ZN13FileSetDialog16staticMetaObjectE, ptr noundef nonnull @.str.1, ptr noundef null, i32 noundef -1)
  invoke void @_ZN11ElidedLabel7setTextERK7QString(ptr noundef nonnull align 8 dereferenceable(96) %20, ptr noundef nonnull align 8 dereferenceable(24) %4)
          to label %21 unwind label %39

21:                                               ; preds = %_ZN7QStringD2Ev.exit10
  %22 = load ptr, ptr %4, align 8
  %.not.i.i.i11 = icmp eq ptr %22, null
  br i1 %.not.i.i.i11, label %_ZN7QStringD2Ev.exit14, label %_ZN17QArrayDataPointerIDsE5derefEv.exit.i.i12

_ZN17QArrayDataPointerIDsE5derefEv.exit.i.i12:    ; preds = %21
  %23 = atomicrmw sub ptr %22, i32 1 seq_cst, align 4
  %.not.i.i13 = icmp eq i32 %23, 1
  br i1 %.not.i.i13, label %24, label %_ZN7QStringD2Ev.exit14

24:                                               ; preds = %_ZN17QArrayDataPointerIDsE5derefEv.exit.i.i12
  %25 = load ptr, ptr %4, align 8
  call void @_ZN10QArrayData10deallocateEPS_xx(ptr noundef %25, i64 noundef 2, i64 noundef 8) #15
  br label %_ZN7QStringD2Ev.exit14

_ZN7QStringD2Ev.exit14:                           ; preds = %21, %_ZN17QArrayDataPointerIDsE5derefEv.exit.i.i12, %24
  %26 = load ptr, ptr %17, align 8
  %27 = getelementptr inbounds i8, ptr %26, i64 32
  %28 = load ptr, ptr %27, align 8
  call void @_ZN7QWidget10setEnabledEb(ptr noundef nonnull align 8 dereferenceable(40) %28, i1 noundef zeroext false)
  ret void

29:                                               ; preds = %1
  %30 = landingpad { ptr, i32 }
          cleanup
  br label %_ZN7QStringD2Ev.exit18

31:                                               ; preds = %7
  %32 = landingpad { ptr, i32 }
          cleanup
  %33 = load ptr, ptr %2, align 8
  %.not.i.i.i15 = icmp eq ptr %33, null
  br i1 %.not.i.i.i15, label %_ZN7QStringD2Ev.exit18, label %_ZN17QArrayDataPointerIDsE5derefEv.exit.i.i16

_ZN17QArrayDataPointerIDsE5derefEv.exit.i.i16:    ; preds = %31
  %34 = atomicrmw sub ptr %33, i32 1 seq_cst, align 4
  %.not.i.i17 = icmp eq i32 %34, 1
  br i1 %.not.i.i17, label %35, label %_ZN7QStringD2Ev.exit18

35:                                               ; preds = %_ZN17QArrayDataPointerIDsE5derefEv.exit.i.i16
  %36 = load ptr, ptr %2, align 8
  call void @_ZN10QArrayData10deallocateEPS_xx(ptr noundef %36, i64 noundef 2, i64 noundef 8) #15
  br label %_ZN7QStringD2Ev.exit18

_ZN7QStringD2Ev.exit18:                           ; preds = %35, %_ZN17QArrayDataPointerIDsE5derefEv.exit.i.i16, %31, %29
  %.pn = phi { ptr, i32 } [ %30, %29 ], [ %32, %31 ], [ %32, %_ZN17QArrayDataPointerIDsE5derefEv.exit.i.i16 ], [ %32, %35 ]
  %37 = load ptr, ptr %3, align 8
  %.not.i.i.i19 = icmp eq ptr %37, null
  br i1 %.not.i.i.i19, label %_ZN7QStringD2Ev.exit22, label %_ZN17QArrayDataPointerIDsE5derefEv.exit.i.i20

_ZN17QArrayDataPointerIDsE5derefEv.exit.i.i20:    ; preds = %_ZN7QStringD2Ev.exit18
  %38 = atomicrmw sub ptr %37, i32 1 seq_cst, align 4
  %.not.i.i21 = icmp eq i32 %38, 1
  br i1 %.not.i.i21, label %_ZN7QStringD2Ev.exit22.sink.split, label %_ZN7QStringD2Ev.exit22

39:                                               ; preds = %_ZN7QStringD2Ev.exit10
  %40 = landingpad { ptr, i32 }
          cleanup
  %41 = load ptr, ptr %4, align 8
  %.not.i.i.i23 = icmp eq ptr %41, null
  br i1 %.not.i.i.i23, label %_ZN7QStringD2Ev.exit22, label %_ZN17QArrayDataPointerIDsE5derefEv.exit.i.i24

_ZN17QArrayDataPointerIDsE5derefEv.exit.i.i24:    ; preds = %39
  %42 = atomicrmw sub ptr %41, i32 1 seq_cst, align 4
  %.not.i.i25 = icmp eq i32 %42, 1
  br i1 %.not.i.i25, label %_ZN7QStringD2Ev.exit22.sink.split, label %_ZN7QStringD2Ev.exit22

_ZN7QStringD2Ev.exit22.sink.split:                ; preds = %_ZN17QArrayDataPointerIDsE5derefEv.exit.i.i24, %_ZN17QArrayDataPointerIDsE5derefEv.exit.i.i20
  %.sink.in = phi ptr [ %3, %_ZN17QArrayDataPointerIDsE5derefEv.exit.i.i20 ], [ %4, %_ZN17QArrayDataPointerIDsE5derefEv.exit.i.i24 ]
  %.pn5.ph = phi { ptr, i32 } [ %.pn, %_ZN17QArrayDataPointerIDsE5derefEv.exit.i.i20 ], [ %40, %_ZN17QArrayDataPointerIDsE5derefEv.exit.i.i24 ]
  %.sink = load ptr, ptr %.sink.in, align 8
  call void @_ZN10QArrayData10deallocateEPS_xx(ptr noundef %.sink, i64 noundef 2, i64 noundef 8) #15
  br label %_ZN7QStringD2Ev.exit22

_ZN7QStringD2Ev.exit22:                           ; preds = %_ZN7QStringD2Ev.exit22.sink.split, %_ZN17QArrayDataPointerIDsE5derefEv.exit.i.i24, %39, %_ZN17QArrayDataPointerIDsE5derefEv.exit.i.i20, %_ZN7QStringD2Ev.exit18
  %.pn5 = phi { ptr, i32 } [ %.pn, %_ZN7QStringD2Ev.exit18 ], [ %.pn, %_ZN17QArrayDataPointerIDsE5derefEv.exit.i.i20 ], [ %40, %39 ], [ %40, %_ZN17QArrayDataPointerIDsE5derefEv.exit.i.i24 ], [ %.pn5.ph, %_ZN7QStringD2Ev.exit22.sink.split ]
  resume { ptr, i32 } %.pn5
}